target datalayout = "e-m:e-p270:32:32-p271:32:32-p272:64:64-i64:64-i128:128-f80:128-n8:16:32:64-S128"
target triple = "x86_64-pc-linux-gnu"

%struct.strbuf = type { i64, i64, ptr }
%struct.pathspec = type { i32, i8, i32, i32, ptr }
%struct.diff_options = type { ptr, ptr, i32, i32, ptr, i32, ptr, i64, i64, ptr, ptr, ptr, ptr, %struct.diff_flags, i32, i32, i32, i32, i32, i32, i32, i32, i32, i32, i32, i32, i32, i32, i32, i32, i32, i32, i32, i32, i32, i32, ptr, i32, ptr, i32, i32, ptr, i64, i64, i32, i32, i32, i32, ptr, i32, i32, ptr, i32, i32, ptr, ptr, i32, [3 x i8], %struct.pathspec, ptr, ptr, ptr, ptr, ptr, ptr, ptr, ptr, i32, ptr, i32, i32, ptr, ptr, i32 }
%struct.diff_flags = type { i32, i32, i32, i32, i32, i32, i32, i32, i32, i32, i32, i32, i32, i32, i32, i32, i32, i32, i32, i32, i32, i32, i32, i32, i32, i32, i32, i32, i32, i32, i32, i32, i32, i32, i32 }

@__const.show_interdiff.prefix = private unnamed_addr constant %struct.strbuf { i64 0, i64 0, ptr @strbuf_slopbuf }, align 8
@.str.13 = private unnamed_addr constant [1 x i8] zeroinitializer, align 1

; Function Attrs: nounwind uwtable
define dso_local void @show_interdiff(ptr noundef %0, ptr noundef %1, i32 noundef %2, ptr noundef %3) #0 {
  %5 = alloca ptr, align 8
  %6 = alloca ptr, align 8
  %7 = alloca i32, align 4
  %8 = alloca ptr, align 8
  %9 = alloca %struct.diff_options, align 8
  %10 = alloca %struct.strbuf, align 8
  store ptr %0, ptr %5, align 8, !tbaa !120
  store ptr %1, ptr %6, align 8, !tbaa !120
  store i32 %2, ptr %7, align 4, !tbaa !9
  store ptr %3, ptr %8, align 8, !tbaa !129
  call void @llvm.lifetime.start.p0(i64 592, ptr %9) #11
  call void @llvm.lifetime.start.p0(i64 24, ptr %10) #11
  call void @llvm.memcpy.p0.p0.i64(ptr align 8 %10, ptr align 8 @__const.show_interdiff.prefix, i64 24, i1 false)
  %11 = load ptr, ptr %8, align 8, !tbaa !129
  call void @llvm.memcpy.p0.p0.i64(ptr align 8 %9, ptr align 8 %11, i64 592, i1 false)
  %12 = getelementptr inbounds nuw %struct.diff_options, ptr %9, i32 0, i32 24
  store i32 16, ptr %12, align 4, !tbaa !202
  %13 = getelementptr inbounds nuw %struct.diff_options, ptr %9, i32 0, i32 65
  store ptr @idiff_prefix_cb, ptr %13, align 8, !tbaa !203
  %14 = load i32, ptr %7, align 4, !tbaa !9
  %15 = sext i32 %14 to i64
  call void @strbuf_addchars(ptr noundef %10, i32 noundef 32, i64 noundef %15)
  %16 = getelementptr inbounds nuw %struct.strbuf, ptr %10, i32 0, i32 2
  %17 = load ptr, ptr %16, align 8, !tbaa !204
  %18 = getelementptr inbounds nuw %struct.diff_options, ptr %9, i32 0, i32 66
  store ptr %17, ptr %18, align 8, !tbaa !205
  call void @diff_setup_done(ptr noundef %9)
  %19 = load ptr, ptr %5, align 8, !tbaa !120
  %20 = load ptr, ptr %6, align 8, !tbaa !120
  call void @diff_tree_oid(ptr noundef %19, ptr noundef %20, ptr noundef @.str.13, ptr noundef %9)
  call void @diffcore_std(ptr noundef %9)
  call void @diff_flush(ptr noundef %9)
  call void @strbuf_release(ptr noundef %10)
  call void @llvm.lifetime.end.p0(i64 24, ptr %10) #11
  call void @llvm.lifetime.end.p0(i64 592, ptr %9) #11
  ret void
}