; Function Attrs: nounwind uwtable
define dso_local void @show_interdiff(ptr noundef %0, ptr noundef %1, i32 noundef %2, ptr noundef readonly captures(none) %3) local_unnamed_addr #0 {
  %5 = alloca %struct.diff_options, align 8
  %6 = alloca %struct.strbuf, align 8
  call void @llvm.lifetime.start.p0(i64 592, ptr nonnull %5) #15
  call void @llvm.lifetime.start.p0(i64 24, ptr nonnull %6) #15
  call void @llvm.memcpy.p0.p0.i64(ptr noundef nonnull align 8 dereferenceable(24) %6, ptr noundef nonnull align 8 dereferenceable(24) @__const.show_interdiff.prefix, i64 24, i1 false)
  call void @llvm.memcpy.p0.p0.i64(ptr noundef nonnull align 8 dereferenceable(592) %5, ptr noundef nonnull align 8 dereferenceable(592) %3, i64 592, i1 false)
  %7 = getelementptr inbounds nuw i8, ptr %5, i64 276
  store i32 16, ptr %7, align 4, !tbaa !178
  %8 = getelementptr inbounds nuw i8, ptr %5, i64 528
  store ptr @idiff_prefix_cb, ptr %8, align 8, !tbaa !179
  %9 = sext i32 %2 to i64
  call void @strbuf_addchars(ptr noundef nonnull %6, i32 noundef 32, i64 noundef %9) #15
  %10 = getelementptr inbounds nuw i8, ptr %6, i64 16
  %11 = load ptr, ptr %10, align 8, !tbaa !180
  %12 = getelementptr inbounds nuw i8, ptr %5, i64 536
  store ptr %11, ptr %12, align 8, !tbaa !181
  call void @diff_setup_done(ptr noundef nonnull %5) #15
  call void @diff_tree_oid(ptr noundef %0, ptr noundef %1, ptr noundef nonnull @.str.13, ptr noundef nonnull %5) #15
  call void @diffcore_std(ptr noundef nonnull %5) #15
  call void @diff_flush(ptr noundef nonnull %5) #15
  call void @strbuf_release(ptr noundef nonnull %6) #15
  call void @llvm.lifetime.end.p0(i64 24, ptr nonnull %6) #15
  call void @llvm.lifetime.end.p0(i64 592, ptr nonnull %5) #15
  ret void
}